target datalayout = "e-m:e-p270:32:32-p271:32:32-p272:64:64-i64:64-i128:128-f80:128-n8:16:32:64-S128"
target triple = "x86_64-pc-linux-gnu"

%struct.object_id = type { [32 x i8], i32 }

@the_repository = external global ptr, align 8
@.str.2 = private unnamed_addr constant [36 x i8] c"unable to read mailmap object at %s\00", align 1
@.str.3 = private unnamed_addr constant [26 x i8] c"mailmap is not a blob: %s\00", align 1

; Function Attrs: nounwind uwtable
define internal void @read_mailmap_string(ptr noundef %0, ptr noundef %1) #0 {
  %3 = alloca ptr, align 8
  %4 = alloca ptr, align 8
  %5 = alloca ptr, align 8
  store ptr %0, ptr %3, align 8, !tbaa !4
  store ptr %1, ptr %4, align 8, !tbaa !9
  br label %6

6:                                                ; preds = %19, %2
  %7 = load ptr, ptr %4, align 8, !tbaa !9
  %8 = load i8, ptr %7, align 1, !tbaa !17
  %9 = icmp ne i8 %8, 0
  br i1 %9, label %10, label %23

10:                                               ; preds = %6
  call void @llvm.lifetime.start.p0(i64 8, ptr %5) #7
  %11 = load ptr, ptr %4, align 8, !tbaa !9
  %12 = call ptr @strchrnul(ptr noundef %11, i32 noundef 10) #9
  store ptr %12, ptr %5, align 8, !tbaa !9
  %13 = load ptr, ptr %5, align 8, !tbaa !9
  %14 = load i8, ptr %13, align 1, !tbaa !17
  %15 = icmp ne i8 %14, 0
  br i1 %15, label %16, label %19

16:                                               ; preds = %10
  %17 = load ptr, ptr %5, align 8, !tbaa !9
  %18 = getelementptr inbounds nuw i8, ptr %17, i32 1
  store ptr %18, ptr %5, align 8, !tbaa !9
  store i8 0, ptr %17, align 1, !tbaa !17
  br label %19

19:                                               ; preds = %16, %10
  %20 = load ptr, ptr %3, align 8, !tbaa !4
  %21 = load ptr, ptr %4, align 8, !tbaa !9
  call void @read_mailmap_line(ptr noundef %20, ptr noundef %21)
  %22 = load ptr, ptr %5, align 8, !tbaa !9
  store ptr %22, ptr %4, align 8, !tbaa !9
  call void @llvm.lifetime.end.p0(i64 8, ptr %5) #7
  br label %6, !llvm.loop !20

23:                                               ; preds = %6
  ret void
}

; Function Attrs: inlinehint nounwind uwtable
define internal i32 @const_error() #4 {
  ret i32 -1
}

; Function Attrs: nounwind uwtable
define dso_local i32 @read_mailmap_blob(ptr noundef %0, ptr noundef %1) #0 {
  %3 = alloca i32, align 4
  %4 = alloca ptr, align 8
  %5 = alloca ptr, align 8
  %6 = alloca %struct.object_id, align 4
  %7 = alloca ptr, align 8
  %8 = alloca i64, align 8
  %9 = alloca i32, align 4
  %10 = alloca i32, align 4
  store ptr %0, ptr %4, align 8, !tbaa !4
  store ptr %1, ptr %5, align 8, !tbaa !9
  call void @llvm.lifetime.start.p0(i64 36, ptr %6) #7
  call void @llvm.lifetime.start.p0(i64 8, ptr %7) #7
  call void @llvm.lifetime.start.p0(i64 8, ptr %8) #7
  call void @llvm.lifetime.start.p0(i64 4, ptr %9) #7
  %11 = load ptr, ptr %5, align 8, !tbaa !9
  %12 = icmp ne ptr %11, null
  br i1 %12, label %14, label %13

13:                                               ; preds = %2
  store i32 0, ptr %3, align 4
  store i32 1, ptr %10, align 4
  br label %41

14:                                               ; preds = %2
  %15 = load ptr, ptr @the_repository, align 8, !tbaa !18
  %16 = load ptr, ptr %5, align 8, !tbaa !9
  %17 = call i32 @repo_get_oid(ptr noundef %15, ptr noundef %16, ptr noundef %6)
  %18 = icmp slt i32 %17, 0
  br i1 %18, label %19, label %20

19:                                               ; preds = %14
  store i32 0, ptr %3, align 4
  store i32 1, ptr %10, align 4
  br label %41

20:                                               ; preds = %14
  %21 = load ptr, ptr @the_repository, align 8, !tbaa !18
  %22 = call ptr @repo_read_object_file(ptr noundef %21, ptr noundef %6, ptr noundef %9, ptr noundef %8)
  store ptr %22, ptr %7, align 8, !tbaa !9
  %23 = load ptr, ptr %7, align 8, !tbaa !9
  %24 = icmp ne ptr %23, null
  br i1 %24, label %29, label %25

25:                                               ; preds = %20
  %26 = load ptr, ptr %5, align 8, !tbaa !9
  %27 = call i32 (ptr, ...) @error(ptr noundef @.str.2, ptr noundef %26)
  %28 = call i32 @const_error()
  store i32 %28, ptr %3, align 4
  store i32 1, ptr %10, align 4
  br label %41

29:                                               ; preds = %20
  %30 = load i32, ptr %9, align 4, !tbaa !11
  %31 = icmp ne i32 %30, 3
  br i1 %31, label %32, label %37

32:                                               ; preds = %29
  %33 = load ptr, ptr %7, align 8, !tbaa !9
  call void @free(ptr noundef %33) #7
  %34 = load ptr, ptr %5, align 8, !tbaa !9
  %35 = call i32 (ptr, ...) @error(ptr noundef @.str.3, ptr noundef %34)
  %36 = call i32 @const_error()
  store i32 %36, ptr %3, align 4
  store i32 1, ptr %10, align 4
  br label %41

37:                                               ; preds = %29
  %38 = load ptr, ptr %4, align 8, !tbaa !4
  %39 = load ptr, ptr %7, align 8, !tbaa !9
  call void @read_mailmap_string(ptr noundef %38, ptr noundef %39)
  %40 = load ptr, ptr %7, align 8, !tbaa !9
  call void @free(ptr noundef %40) #7
  store i32 0, ptr %3, align 4
  store i32 1, ptr %10, align 4
  br label %41

41:                                               ; preds = %37, %32, %25, %19, %13
  call void @llvm.lifetime.end.p0(i64 4, ptr %9) #7
  call void @llvm.lifetime.end.p0(i64 8, ptr %8) #7
  call void @llvm.lifetime.end.p0(i64 8, ptr %7) #7
  call void @llvm.lifetime.end.p0(i64 36, ptr %6) #7
  %42 = load i32, ptr %3, align 4
  ret i32 %42
}