; Function Attrs: nounwind uwtable
define dso_local range(i32 -1, 1) i32 @read_mailmap_blob(ptr noundef %0, ptr noundef %1) local_unnamed_addr #0 {
  %3 = alloca %struct.object_id, align 4
  %4 = alloca i64, align 8
  %5 = alloca i32, align 4
  call void @llvm.lifetime.start.p0(i64 36, ptr nonnull %3) #11
  call void @llvm.lifetime.start.p0(i64 8, ptr nonnull %4) #11
  call void @llvm.lifetime.start.p0(i64 4, ptr nonnull %5) #11
  %.not = icmp eq ptr %1, null
  br i1 %.not, label %27, label %6

6:                                                ; preds = %2
  %7 = load ptr, ptr @the_repository, align 8, !tbaa !27
  %8 = call i32 @repo_get_oid(ptr noundef %7, ptr noundef nonnull %1, ptr noundef nonnull %3) #11
  %9 = icmp slt i32 %8, 0
  br i1 %9, label %27, label %10

10:                                               ; preds = %6
  %11 = load ptr, ptr @the_repository, align 8, !tbaa !27
  %12 = call ptr @repo_read_object_file(ptr noundef %11, ptr noundef nonnull %3, ptr noundef nonnull %5, ptr noundef nonnull %4) #11
  %.not11 = icmp eq ptr %12, null
  br i1 %.not11, label %13, label %15

13:                                               ; preds = %10
  %14 = call i32 (ptr, ...) @error(ptr noundef nonnull @.str.2, ptr noundef nonnull %1) #11
  br label %27

15:                                               ; preds = %10
  %16 = load i32, ptr %5, align 4, !tbaa !4
  %.not12 = icmp eq i32 %16, 3
  br i1 %.not12, label %19, label %17

17:                                               ; preds = %15
  call void @free(ptr noundef nonnull %12) #11
  %18 = call i32 (ptr, ...) @error(ptr noundef nonnull @.str.3, ptr noundef nonnull %1) #11
  br label %27

19:                                               ; preds = %15
  %20 = load i8, ptr %12, align 1, !tbaa !10
  %.not9.i = icmp eq i8 %20, 0
  br i1 %.not9.i, label %read_mailmap_string.exit, label %.lr.ph.i

.lr.ph.i:                                         ; preds = %19, %25
  %.0710.i = phi ptr [ %.0.i, %25 ], [ %12, %19 ]
  %21 = call ptr @strchrnul(ptr noundef nonnull %.0710.i, i32 noundef 10) #13
  %22 = load i8, ptr %21, align 1, !tbaa !10
  %.not8.i = icmp eq i8 %22, 0
  br i1 %.not8.i, label %25, label %23

23:                                               ; preds = %.lr.ph.i
  %24 = getelementptr inbounds nuw i8, ptr %21, i64 1
  store i8 0, ptr %21, align 1, !tbaa !10
  br label %25

25:                                               ; preds = %23, %.lr.ph.i
  %.0.i = phi ptr [ %24, %23 ], [ %21, %.lr.ph.i ]
  call fastcc void @read_mailmap_line(ptr noundef %0, ptr noundef nonnull %.0710.i)
  %26 = load i8, ptr %.0.i, align 1, !tbaa !10
  %.not.i = icmp eq i8 %26, 0
  br i1 %.not.i, label %read_mailmap_string.exit, label %.lr.ph.i, !llvm.loop !29

read_mailmap_string.exit:                         ; preds = %25, %19
  call void @free(ptr noundef %12) #11
  br label %27

27:                                               ; preds = %6, %2, %read_mailmap_string.exit, %17, %13
  %.0 = phi i32 [ -1, %17 ], [ 0, %read_mailmap_string.exit ], [ -1, %13 ], [ 0, %2 ], [ 0, %6 ]
  call void @llvm.lifetime.end.p0(i64 4, ptr nonnull %5) #11
  call void @llvm.lifetime.end.p0(i64 8, ptr nonnull %4) #11
  call void @llvm.lifetime.end.p0(i64 36, ptr nonnull %3) #11
  ret i32 %.0
}